(dp1
S'Apple Pie'
p2
(dp3
S'Directions'
p4
(lp5
S'1'
aS'Preheat oven to 425 degrees F (220 degrees C)'
p6
aS'Melt the butter in a saucepan'
p7
aS'Stir in flour to form a paste'
p8
aS'Add water, white sugar and brown sugar, and bring to a boil'
p9
aS'Reduce temperature and let simmer'
p10
aS'2'
aS'Place the bottom crust in your pan'
p11
aS'Fill with apples, mounded slightly'
p12
aS'Cover with a lattice work crust'
p13
aS'Gently pour the sugar and butter liquid over the crust'
p14
aS'Pour slowly so that it does not run off'
p15
aS'3'
aS'Bake 15 minutes in the preheated oven'
p16
aS'Reduce the temperature to 350 degrees F (175 degrees C)'
p17
aS'Continue baking for 35 to 45 minutes, until apples are soft.'
p18
asS'Ingredients'
p19
(lp20
S'1 recipe pastry for a 9 inch double crust pie'
p21
aS'1/2 cup unsalted butter'
p22
aS'3 tablespoons all-purpose flour'
p23
aS'1/4 cup water'
p24
aS'1/2 cup white sugar'
p25
aS'1/2 cup packed brown sugar'
p26
aS'8 Granny Smith apples - peeled'
p27
aS'cored and sliced'
p28
assS'Chocolate chip cookies'
p29
(dp30
S'Directions'
p31
S'1. Preheat the oven to 325 degrees F (165 degrees C). Grease cookie sheets or line with parchment paper. 2. Sift together the flour, baking soda and salt; set aside. 3. In a medium bowl, cream together the melted butter, brown sugar and white sugar until well blended. Beat in the vanilla, egg, and egg yolk until light and creamy. Mix in the sifted ingredients until just blended. Stir in the chocolate chips by hand using a wooden spoon. Drop cookie dough 1/4 cup at a time onto the prepared cookie sheets. Cookies should be about 3 inches apart. 4. Bake for 15 to 17 minutes in the preheated oven, or until the edges are lightly toasted. Cool on baking sheets for a few minutes before transferring to wire racks to cool completely.'
p32
sS'Ingredients'
p33
(lp34
S'2 cups all-purpose flour'
p35
aS'1/2 teaspoon baking soda'
p36
aS'1/2 teaspoon salt'
p37
aS'3/4 cup unsalted butter'
p38
aS'melted'
p39
aS'1 cup packed brown sugar'
p40
aS'1/2 cup white sugar'
p41
aS'1 tablespoon vanilla extract'
p42
aS'1 egg'
p43
aS'1 egg yolk'
p44
aS'2 cups semisweet chocolate chips'
p45
assS'Pie'
p46
(dp47
S'Directions'
p48
(lp49
S'combine all ingredients'
p50
aS'set in the oven and bake.'
p51
asS'Ingredients'
p52
(lp53
S'fruit'
p54
aS'crust'
p55
aS'wip cream'
p56
assS'Kale salad'
p57
(dp58
S'Directions'
p59
(lp60
S'1'
aS'Tear kale to bite size pieces'
p61
aS'2'
aS'Mix other ingredients together'
p62
aS'3'
aS'Mix and let sit for 5 min'
p63
aS'4'
aS'Enjoy!'
p64
asS'Ingredients'
p65
(lp66
S'kale'
p67
aS'lemon juice'
p68
aS'tumeric'
p69
aS'garlic'
p70
aS'olive oil'
p71
aS'sea salt'
p72
assS'Chocolate Chip Cookies'
p73
(dp74
S'Directions'
p75
(lp76
S'1'
aS'Preheat the oven to 325 degrees F (165 degrees C)'
p77
aS'Grease cookie sheets or line with parchment paper'
p78
aS'2'
aS'Sift together the flour, baking soda and salt; set aside'
p79
aS'3'
aS'In a medium bowl, cream together the melted butter, brown sugar and white sugar until well blended'
p80
aS'Beat in the vanilla, egg, and egg yolk until light and creamy'
p81
aS'Mix in the sifted ingredients until just blended'
p82
aS'Stir in the chocolate chips by hand using a wooden spoon'
p83
aS'Drop cookie dough 1/4 cup at a time onto the prepared cookie sheets'
p84
aS'Cookies should be about 3 inches apart'
p85
aS'4'
aS'Bake for 15 to 17 minutes in the preheated oven, or until the edges are lightly toasted'
p86
aS'Cool on baking sheets for a few minutes before transferring to wire racks to cool completely.'
p87
asS'Ingredients'
p88
(lp89
S'2 cups all-purpose flour'
p90
aS'1/2 teaspoon baking soda'
p91
aS'1/2 teaspoon salt'
p92
aS'3/4 cup unsalted butter'
p93
aS'melted'
p94
aS'1 cup packed brown sugar'
p95
aS'1/2 cup white sugar'
p96
aS'1 tablespoon vanilla extract'
p97
aS'1 egg'
p98
aS'1 egg yolk'
p99
aS'2 cups semisweet chocolate chips'
p100
ass.